; Function Attrs: mustprogress uwtable
define hidden void @_ZN4cvc58internal6theory11quantifiers15EntailmentCheck12evaluateTermENS0_12NodeTemplateILb0EEERSt3mapIS5_S5_St4lessIS5_ESaISt4pairIKS5_S5_EEEbbb(ptr dead_on_unwind noalias writable sret(%"class.cvc5::internal::NodeTemplate") align 8 %0, ptr noundef nonnull align 8 dereferenceable(48) %1, ptr noundef readonly captures(none) %2, ptr noundef nonnull align 8 dereferenceable(48) %3, i1 noundef zeroext %4, i1 noundef zeroext %5, i1 noundef zeroext %6) local_unnamed_addr #3 align 2 personality ptr @__gxx_personality_v0 {
  %8 = alloca %"class.std::map.476", align 8
  %9 = alloca %"class.cvc5::internal::NodeTemplate.475", align 8
  call void @llvm.lifetime.start.p0(i64 48, ptr nonnull %8) #20
  %10 = getelementptr inbounds nuw i8, ptr %8, i64 8
  store i32 0, ptr %10, align 8, !tbaa !127
  %11 = getelementptr inbounds nuw i8, ptr %8, i64 16
  store ptr null, ptr %11, align 8, !tbaa !21
  %12 = getelementptr inbounds nuw i8, ptr %8, i64 24
  store ptr %10, ptr %12, align 8, !tbaa !128
  %13 = getelementptr inbounds nuw i8, ptr %8, i64 32
  store ptr %10, ptr %13, align 8, !tbaa !129
  %14 = getelementptr inbounds nuw i8, ptr %8, i64 40
  store i64 0, ptr %14, align 8, !tbaa !130
  %15 = load ptr, ptr %2, align 8, !tbaa !27
  store ptr %15, ptr %9, align 8, !tbaa !27
  invoke void @_ZN4cvc58internal6theory11quantifiers15EntailmentCheck13evaluateTerm2ENS0_12NodeTemplateILb0EEERSt3mapIS5_NS4_ILb1EEESt4lessIS5_ESaISt4pairIKS5_S7_EEERS6_IS5_S5_S9_SaISA_ISB_S5_EEEbbb(ptr dead_on_unwind writable sret(%"class.cvc5::internal::NodeTemplate") align 8 %0, ptr noundef nonnull align 8 dereferenceable(48) %1, ptr noundef nonnull %9, ptr noundef nonnull align 8 dereferenceable(48) %8, ptr noundef nonnull align 8 dereferenceable(48) %3, i1 noundef zeroext %4, i1 noundef zeroext %5, i1 noundef zeroext %6)
          to label %16 unwind label %21

16:                                               ; preds = %7
  %17 = load ptr, ptr %11, align 8, !tbaa !21
  invoke void @_ZNSt8_Rb_treeIN4cvc58internal12NodeTemplateILb0EEESt4pairIKS3_NS2_ILb1EEEESt10_Select1stIS7_ESt4lessIS3_ESaIS7_EE8_M_eraseEPSt13_Rb_tree_nodeIS7_E(ptr noundef nonnull align 8 dereferenceable(48) %8, ptr noundef %17)
          to label %_ZNSt3mapIN4cvc58internal12NodeTemplateILb0EEENS2_ILb1EEESt4lessIS3_ESaISt4pairIKS3_S4_EEED2Ev.exit unwind label %18

18:                                               ; preds = %16
  %19 = landingpad { ptr, i32 }
          catch ptr null
  %20 = extractvalue { ptr, i32 } %19, 0
  call void @__clang_call_terminate(ptr %20) #22
  unreachable

_ZNSt3mapIN4cvc58internal12NodeTemplateILb0EEENS2_ILb1EEESt4lessIS3_ESaISt4pairIKS3_S4_EEED2Ev.exit: ; preds = %16
  call void @llvm.lifetime.end.p0(i64 48, ptr nonnull %8) #20
  ret void

21:                                               ; preds = %7
  %22 = landingpad { ptr, i32 }
          cleanup
  call void @_ZNSt3mapIN4cvc58internal12NodeTemplateILb0EEENS2_ILb1EEESt4lessIS3_ESaISt4pairIKS3_S4_EEED2Ev(ptr noundef nonnull align 8 dereferenceable(48) %8) #20
  call void @llvm.lifetime.end.p0(i64 48, ptr nonnull %8) #20
  resume { ptr, i32 } %22
}